target datalayout = "e-m:e-p270:32:32-p271:32:32-p272:64:64-i64:64-i128:128-f80:128-n8:16:32:64-S128"
target triple = "x86_64-pc-linux-gnu"

%struct.mbedtls_asn1_buf = type { i32, i64, ptr }
%struct.mbedtls_asn1_named_data = type { %struct.mbedtls_asn1_buf, %struct.mbedtls_asn1_buf, ptr, i8 }
%struct.mbedtls_pkcs7_signer_info = type { i32, %struct.mbedtls_asn1_buf, %struct.mbedtls_asn1_named_data, %struct.mbedtls_asn1_buf, %struct.mbedtls_asn1_buf, %struct.mbedtls_asn1_buf, %struct.mbedtls_asn1_buf, ptr }

@.str = private unnamed_addr constant [119 x i8] c"generated/home/dtcxzyw/WorkSpace/Projects/compilers/llvm-opt-benchmark/bench/lief/bench_build/mbed_src/library/pkcs7.c\00", align 1

; Function Attrs: nounwind uwtable
define internal void @pkcs7_free_signer_info(ptr noundef %0) #0 {
  %2 = alloca ptr, align 8
  %3 = alloca ptr, align 8
  %4 = alloca ptr, align 8
  %5 = alloca i32, align 4
  store ptr %0, ptr %2, align 8, !tbaa !48
  call void @llvm.lifetime.start.p0(i64 8, ptr %3) #9
  call void @llvm.lifetime.start.p0(i64 8, ptr %4) #9
  %6 = load ptr, ptr %2, align 8, !tbaa !48
  %7 = icmp eq ptr %6, null
  br i1 %7, label %8, label %9

8:                                                ; preds = %1
  store i32 1, ptr %5, align 4
  br label %27

9:                                                ; preds = %1
  %10 = load ptr, ptr %2, align 8, !tbaa !48
  %11 = getelementptr inbounds nuw %struct.mbedtls_pkcs7_signer_info, ptr %10, i32 0, i32 2
  %12 = getelementptr inbounds nuw %struct.mbedtls_asn1_named_data, ptr %11, i32 0, i32 2
  %13 = load ptr, ptr %12, align 8, !tbaa !62
  store ptr %13, ptr %3, align 8, !tbaa !63
  br label %14

14:                                               ; preds = %17, %9
  %15 = load ptr, ptr %3, align 8, !tbaa !63
  %16 = icmp ne ptr %15, null
  br i1 %16, label %17, label %23

17:                                               ; preds = %14
  %18 = load ptr, ptr %3, align 8, !tbaa !63
  store ptr %18, ptr %4, align 8, !tbaa !63
  %19 = load ptr, ptr %3, align 8, !tbaa !63
  %20 = getelementptr inbounds nuw %struct.mbedtls_asn1_named_data, ptr %19, i32 0, i32 2
  %21 = load ptr, ptr %20, align 8, !tbaa !64
  store ptr %21, ptr %3, align 8, !tbaa !63
  %22 = load ptr, ptr %4, align 8, !tbaa !63
  call void @free(ptr noundef %22) #9
  br label %14, !llvm.loop !65

23:                                               ; preds = %14
  %24 = load ptr, ptr %2, align 8, !tbaa !48
  %25 = getelementptr inbounds nuw %struct.mbedtls_pkcs7_signer_info, ptr %24, i32 0, i32 2
  %26 = getelementptr inbounds nuw %struct.mbedtls_asn1_named_data, ptr %25, i32 0, i32 2
  store ptr null, ptr %26, align 8, !tbaa !62
  store i32 0, ptr %5, align 4
  br label %27

27:                                               ; preds = %23, %8
  call void @llvm.lifetime.end.p0(i64 8, ptr %4) #9
  call void @llvm.lifetime.end.p0(i64 8, ptr %3) #9
  %28 = load i32, ptr %5, align 4
  switch i32 %28, label %30 [
    i32 0, label %29
    i32 1, label %29
  ]

29:                                               ; preds = %27, %27
  ret void

30:                                               ; preds = %27
  unreachable
}

; Function Attrs: inlinehint nounwind uwtable
define internal i32 @mbedtls_error_add(i32 noundef %0, i32 noundef %1, ptr noundef %2, i32 noundef %3) #6 {
  %5 = alloca i32, align 4
  %6 = alloca i32, align 4
  %7 = alloca ptr, align 8
  %8 = alloca i32, align 4
  store i32 %0, ptr %5, align 4, !tbaa !12
  store i32 %1, ptr %6, align 4, !tbaa !12
  store ptr %2, ptr %7, align 8, !tbaa !8
  store i32 %3, ptr %8, align 4, !tbaa !12
  %9 = load i32, ptr %5, align 4, !tbaa !12
  %10 = load i32, ptr %6, align 4, !tbaa !12
  %11 = add nsw i32 %9, %10
  ret i32 %11
}

; Function Attrs: nounwind uwtable
define internal i32 @pkcs7_get_signers_info_set(ptr noundef %0, ptr noundef %1, ptr noundef %2, ptr noundef %3) #0 {
  %5 = alloca i32, align 4
  %6 = alloca ptr, align 8
  %7 = alloca ptr, align 8
  %8 = alloca ptr, align 8
  %9 = alloca ptr, align 8
  %10 = alloca ptr, align 8
  %11 = alloca i32, align 4
  %12 = alloca i32, align 4
  %13 = alloca i64, align 8
  %14 = alloca i32, align 4
  %15 = alloca ptr, align 8
  %16 = alloca ptr, align 8
  %17 = alloca ptr, align 8
  store ptr %0, ptr %6, align 8, !tbaa !35
  store ptr %1, ptr %7, align 8, !tbaa !8
  store ptr %2, ptr %8, align 8, !tbaa !48
  store ptr %3, ptr %9, align 8, !tbaa !68
  call void @llvm.lifetime.start.p0(i64 8, ptr %10) #9
  call void @llvm.lifetime.start.p0(i64 4, ptr %11) #9
  store i32 -110, ptr %11, align 4, !tbaa !12
  call void @llvm.lifetime.start.p0(i64 4, ptr %12) #9
  store i32 0, ptr %12, align 4, !tbaa !12
  call void @llvm.lifetime.start.p0(i64 8, ptr %13) #9
  store i64 0, ptr %13, align 8, !tbaa !10
  %18 = load ptr, ptr %6, align 8, !tbaa !35
  %19 = load ptr, ptr %7, align 8, !tbaa !8
  %20 = call i32 @mbedtls_asn1_get_tag(ptr noundef %18, ptr noundef %19, ptr noundef %13, i32 noundef 49)
  store i32 %20, ptr %11, align 4, !tbaa !12
  %21 = load i32, ptr %11, align 4, !tbaa !12
  %22 = icmp ne i32 %21, 0
  br i1 %22, label %23, label %26

23:                                               ; preds = %4
  %24 = load i32, ptr %11, align 4, !tbaa !12
  %25 = call i32 @mbedtls_error_add(i32 noundef -22144, i32 noundef %24, ptr noundef @.str, i32 noundef 389)
  store i32 %25, ptr %5, align 4
  store i32 1, ptr %14, align 4
  br label %100

26:                                               ; preds = %4
  %27 = load i64, ptr %13, align 8, !tbaa !10
  %28 = icmp eq i64 %27, 0
  br i1 %28, label %29, label %30

29:                                               ; preds = %26
  store i32 0, ptr %5, align 4
  store i32 1, ptr %14, align 4
  br label %100

30:                                               ; preds = %26
  %31 = load ptr, ptr %6, align 8, !tbaa !35
  %32 = load ptr, ptr %31, align 8, !tbaa !8
  %33 = load i64, ptr %13, align 8, !tbaa !10
  %34 = getelementptr inbounds nuw i8, ptr %32, i64 %33
  store ptr %34, ptr %10, align 8, !tbaa !8
  %35 = load ptr, ptr %6, align 8, !tbaa !35
  %36 = load ptr, ptr %10, align 8, !tbaa !8
  %37 = load ptr, ptr %8, align 8, !tbaa !48
  %38 = load ptr, ptr %9, align 8, !tbaa !68
  %39 = call i32 @pkcs7_get_signer_info(ptr noundef %35, ptr noundef %36, ptr noundef %37, ptr noundef %38)
  store i32 %39, ptr %11, align 4, !tbaa !12
  %40 = load i32, ptr %11, align 4, !tbaa !12
  %41 = icmp ne i32 %40, 0
  br i1 %41, label %42, label %44

42:                                               ; preds = %30
  %43 = load i32, ptr %11, align 4, !tbaa !12
  store i32 %43, ptr %5, align 4
  store i32 1, ptr %14, align 4
  br label %100

44:                                               ; preds = %30
  %45 = load i32, ptr %12, align 4, !tbaa !12
  %46 = add nsw i32 %45, 1
  store i32 %46, ptr %12, align 4, !tbaa !12
  call void @llvm.lifetime.start.p0(i64 8, ptr %15) #9
  %47 = load ptr, ptr %8, align 8, !tbaa !48
  store ptr %47, ptr %15, align 8, !tbaa !48
  br label %48

48:                                               ; preds = %77, %44
  %49 = load ptr, ptr %6, align 8, !tbaa !35
  %50 = load ptr, ptr %49, align 8, !tbaa !8
  %51 = load ptr, ptr %10, align 8, !tbaa !8
  %52 = icmp ne ptr %50, %51
  br i1 %52, label %53, label %78

53:                                               ; preds = %48
  call void @llvm.lifetime.start.p0(i64 8, ptr %16) #9
  %54 = call noalias ptr @calloc(i64 noundef 1, i64 noundef 200) #10
  store ptr %54, ptr %16, align 8, !tbaa !48
  %55 = load ptr, ptr %16, align 8, !tbaa !48
  %56 = icmp ne ptr %55, null
  br i1 %56, label %58, label %57

57:                                               ; preds = %53
  store i32 -22400, ptr %11, align 4, !tbaa !12
  store i32 4, ptr %14, align 4
  br label %75

58:                                               ; preds = %53
  %59 = load ptr, ptr %6, align 8, !tbaa !35
  %60 = load ptr, ptr %10, align 8, !tbaa !8
  %61 = load ptr, ptr %16, align 8, !tbaa !48
  %62 = load ptr, ptr %9, align 8, !tbaa !68
  %63 = call i32 @pkcs7_get_signer_info(ptr noundef %59, ptr noundef %60, ptr noundef %61, ptr noundef %62)
  store i32 %63, ptr %11, align 4, !tbaa !12
  %64 = load i32, ptr %11, align 4, !tbaa !12
  %65 = icmp ne i32 %64, 0
  br i1 %65, label %66, label %68

66:                                               ; preds = %58
  %67 = load ptr, ptr %16, align 8, !tbaa !48
  call void @free(ptr noundef %67) #9
  store i32 4, ptr %14, align 4
  br label %75

68:                                               ; preds = %58
  %69 = load ptr, ptr %16, align 8, !tbaa !48
  %70 = load ptr, ptr %15, align 8, !tbaa !48
  %71 = getelementptr inbounds nuw %struct.mbedtls_pkcs7_signer_info, ptr %70, i32 0, i32 7
  store ptr %69, ptr %71, align 8, !tbaa !49
  %72 = load ptr, ptr %16, align 8, !tbaa !48
  store ptr %72, ptr %15, align 8, !tbaa !48
  %73 = load i32, ptr %12, align 4, !tbaa !12
  %74 = add nsw i32 %73, 1
  store i32 %74, ptr %12, align 4, !tbaa !12
  store i32 0, ptr %14, align 4
  br label %75

75:                                               ; preds = %66, %57, %68
  call void @llvm.lifetime.end.p0(i64 8, ptr %16) #9
  %76 = load i32, ptr %14, align 4
  switch i32 %76, label %99 [
    i32 0, label %77
    i32 4, label %80
  ]

77:                                               ; preds = %75
  br label %48, !llvm.loop !71

78:                                               ; preds = %48
  %79 = load i32, ptr %12, align 4, !tbaa !12
  store i32 %79, ptr %5, align 4
  store i32 1, ptr %14, align 4
  br label %99

80:                                               ; preds = %75
  %81 = load ptr, ptr %8, align 8, !tbaa !48
  call void @pkcs7_free_signer_info(ptr noundef %81)
  %82 = load ptr, ptr %8, align 8, !tbaa !48
  %83 = getelementptr inbounds nuw %struct.mbedtls_pkcs7_signer_info, ptr %82, i32 0, i32 7
  %84 = load ptr, ptr %83, align 8, !tbaa !49
  store ptr %84, ptr %17, align 8, !tbaa !48
  br label %85

85:                                               ; preds = %88, %80
  %86 = load ptr, ptr %17, align 8, !tbaa !48
  %87 = icmp ne ptr %86, null
  br i1 %87, label %88, label %95

88:                                               ; preds = %85
  %89 = load ptr, ptr %17, align 8, !tbaa !48
  store ptr %89, ptr %15, align 8, !tbaa !48
  %90 = load ptr, ptr %17, align 8, !tbaa !48
  %91 = getelementptr inbounds nuw %struct.mbedtls_pkcs7_signer_info, ptr %90, i32 0, i32 7
  %92 = load ptr, ptr %91, align 8, !tbaa !49
  store ptr %92, ptr %17, align 8, !tbaa !48
  %93 = load ptr, ptr %15, align 8, !tbaa !48
  call void @pkcs7_free_signer_info(ptr noundef %93)
  %94 = load ptr, ptr %15, align 8, !tbaa !48
  call void @free(ptr noundef %94) #9
  br label %85, !llvm.loop !72

95:                                               ; preds = %85
  %96 = load ptr, ptr %8, align 8, !tbaa !48
  %97 = getelementptr inbounds nuw %struct.mbedtls_pkcs7_signer_info, ptr %96, i32 0, i32 7
  store ptr null, ptr %97, align 8, !tbaa !49
  %98 = load i32, ptr %11, align 4, !tbaa !12
  store i32 %98, ptr %5, align 4
  store i32 1, ptr %14, align 4
  br label %99

99:                                               ; preds = %95, %78, %75
  call void @llvm.lifetime.end.p0(i64 8, ptr %15) #9
  br label %100

100:                                              ; preds = %99, %42, %29, %23
  call void @llvm.lifetime.end.p0(i64 8, ptr %13) #9
  call void @llvm.lifetime.end.p0(i64 4, ptr %12) #9
  call void @llvm.lifetime.end.p0(i64 4, ptr %11) #9
  call void @llvm.lifetime.end.p0(i64 8, ptr %10) #9
  %101 = load i32, ptr %5, align 4
  ret i32 %101
}