; Function Attrs: nounwind uwtable
define internal fastcc i32 @pkcs7_get_signers_info_set(ptr noundef nonnull %0, ptr noundef %1, ptr noundef nonnull %2, ptr noundef nonnull readonly captures(none) %3) unnamed_addr #2 {
  %5 = alloca i64, align 8
  call void @llvm.lifetime.start.p0(i64 8, ptr nonnull %5) #9
  store i64 0, ptr %5, align 8, !tbaa !3
  %6 = call i32 @mbedtls_asn1_get_tag(ptr noundef nonnull %0, ptr noundef %1, ptr noundef nonnull %5, i32 noundef 49) #9
  %.not = icmp eq i32 %6, 0
  br i1 %.not, label %9, label %7

7:                                                ; preds = %4
  %8 = add nsw i32 %6, -22144
  br label %.loopexit

9:                                                ; preds = %4
  %10 = load i64, ptr %5, align 8, !tbaa !3
  %11 = icmp eq i64 %10, 0
  br i1 %11, label %.loopexit, label %12

12:                                               ; preds = %9
  %13 = load ptr, ptr %0, align 8, !tbaa !7
  %14 = getelementptr inbounds nuw i8, ptr %13, i64 %10
  %15 = call fastcc i32 @pkcs7_get_signer_info(ptr noundef %0, ptr noundef nonnull %14, ptr noundef %2, ptr noundef %3)
  %.not51 = icmp eq i32 %15, 0
  br i1 %.not51, label %.preheader, label %.loopexit

.preheader:                                       ; preds = %12
  %16 = load ptr, ptr %0, align 8, !tbaa !7
  %.not5273 = icmp eq ptr %16, %14
  br i1 %.not5273, label %.loopexit, label %.lr.ph

.lr.ph:                                           ; preds = %.preheader, %21
  %.03875 = phi ptr [ %17, %21 ], [ %2, %.preheader ]
  %.04174 = phi i32 [ %23, %21 ], [ 1, %.preheader ]
  %17 = call noalias dereferenceable_or_null(200) ptr @calloc(i64 noundef 1, i64 noundef 200) #10
  %.not53 = icmp eq ptr %17, null
  br i1 %.not53, label %.loopexit68, label %18

18:                                               ; preds = %.lr.ph
  %19 = call fastcc i32 @pkcs7_get_signer_info(ptr noundef %0, ptr noundef nonnull %14, ptr noundef %17, ptr noundef %3)
  %.not54 = icmp eq i32 %19, 0
  br i1 %.not54, label %21, label %20

20:                                               ; preds = %18
  call void @free(ptr noundef nonnull %17) #9
  br label %.loopexit68

21:                                               ; preds = %18
  %22 = getelementptr inbounds nuw i8, ptr %.03875, i64 192
  store ptr %17, ptr %22, align 8, !tbaa !43
  %23 = add nuw nsw i32 %.04174, 1
  %24 = load ptr, ptr %0, align 8, !tbaa !7
  %.not52 = icmp eq ptr %24, %14
  br i1 %.not52, label %.loopexit, label %.lr.ph

.loopexit68:                                      ; preds = %.lr.ph, %20
  %.043.ph = phi i32 [ %19, %20 ], [ -22400, %.lr.ph ]
  %25 = getelementptr inbounds nuw i8, ptr %2, i64 80
  %26 = load ptr, ptr %25, align 8, !tbaa !39
  %.not8.i = icmp eq ptr %26, null
  br i1 %.not8.i, label %pkcs7_free_signer_info.exit, label %.lr.ph.i

.lr.ph.i:                                         ; preds = %.loopexit68, %.lr.ph.i
  %.09.i = phi ptr [ %28, %.lr.ph.i ], [ %26, %.loopexit68 ]
  %27 = getelementptr inbounds nuw i8, ptr %.09.i, i64 48
  %28 = load ptr, ptr %27, align 8, !tbaa !40
  call void @free(ptr noundef nonnull %.09.i) #9
  %.not.i = icmp eq ptr %28, null
  br i1 %.not.i, label %pkcs7_free_signer_info.exit, label %.lr.ph.i, !llvm.loop !41

pkcs7_free_signer_info.exit:                      ; preds = %.lr.ph.i, %.loopexit68
  store ptr null, ptr %25, align 8, !tbaa !39
  %29 = getelementptr inbounds nuw i8, ptr %2, i64 192
  %30 = load ptr, ptr %29, align 8, !tbaa !43
  %.not5576 = icmp eq ptr %30, null
  br i1 %.not5576, label %._crit_edge, label %.lr.ph78

.lr.ph78:                                         ; preds = %pkcs7_free_signer_info.exit, %pkcs7_free_signer_info.exit61
  %.077 = phi ptr [ %32, %pkcs7_free_signer_info.exit61 ], [ %30, %pkcs7_free_signer_info.exit ]
  %31 = getelementptr inbounds nuw i8, ptr %.077, i64 192
  %32 = load ptr, ptr %31, align 8, !tbaa !43
  %33 = getelementptr inbounds nuw i8, ptr %.077, i64 80
  %34 = load ptr, ptr %33, align 8, !tbaa !39
  %.not8.i57 = icmp eq ptr %34, null
  br i1 %.not8.i57, label %pkcs7_free_signer_info.exit61, label %.lr.ph.i58

.lr.ph.i58:                                       ; preds = %.lr.ph78, %.lr.ph.i58
  %.09.i59 = phi ptr [ %36, %.lr.ph.i58 ], [ %34, %.lr.ph78 ]
  %35 = getelementptr inbounds nuw i8, ptr %.09.i59, i64 48
  %36 = load ptr, ptr %35, align 8, !tbaa !40
  call void @free(ptr noundef nonnull %.09.i59) #9
  %.not.i60 = icmp eq ptr %36, null
  br i1 %.not.i60, label %pkcs7_free_signer_info.exit61, label %.lr.ph.i58, !llvm.loop !41

pkcs7_free_signer_info.exit61:                    ; preds = %.lr.ph.i58, %.lr.ph78
  call void @free(ptr noundef nonnull %.077) #9
  %.not55 = icmp eq ptr %32, null
  br i1 %.not55, label %._crit_edge, label %.lr.ph78, !llvm.loop !53

._crit_edge:                                      ; preds = %pkcs7_free_signer_info.exit61, %pkcs7_free_signer_info.exit
  store ptr null, ptr %29, align 8, !tbaa !43
  br label %.loopexit

.loopexit:                                        ; preds = %21, %.preheader, %._crit_edge, %12, %9, %7
  %.037 = phi i32 [ %8, %7 ], [ 0, %9 ], [ %15, %12 ], [ %.043.ph, %._crit_edge ], [ 1, %.preheader ], [ %23, %21 ]
  call void @llvm.lifetime.end.p0(i64 8, ptr nonnull %5) #9
  ret i32 %.037
}